(lp0
(Vhttp://safaribooksonline.com
p1
S'[LSI]'
p2
tp3
a(Vmailto:corporate@oreilly.com
p4
S'[LSI]'
p5
tp6
a(Vhttp://oreilly.com/catalog/errata.csp?isbn=9781491946008
p7
S'[LSI]'
p8
tp9
a(Vhttps://mail.python.org/pipermail/python-list/2002-December/147293.html
p10
S'xv'
p11
tp12
a(Vhttps://docs.python.org/3/tutorial/
p13
S'xv'
p14
tp15
a(Vhttps://docs.python.org/3.0/whatsnew/3.0.html
p16
S'|  Preface'
p17
tp18
a(Vhttps://docs.python.org/3/tutorial/
p19
S'|  Preface'
p20
tp21
a(Vhttps://docs.python.org/3/library/doctest.html
p22
S'|  Preface'
p23
tp24
a(Vhttps://docs.python.org/3/library/doctest.html
p25
S'|  Preface'
p26
tp27
a(Vhttps://github.com/fluentpython/example-code
p28
S'|  Preface'
p29
tp30
a(Vhttps://github.com/fluentpython/example-code
p31
S'|  Preface'
p32
tp33
a(Vhttps://github.com/fluentpython/example-code
p34
S'|  Preface'
p35
tp36
a(Vhttp://my.safaribooksonline.com/?portal=oreilly
p37
S'xxi'
p38
tp39
a(Vhttp://www.safaribooksonline.com/content
p40
S'xxi'
p41
tp42
a(Vhttp://www.safaribooksonline.com/subscriptions
p43
S'xxi'
p44
tp45
a(Vhttp://www.safaribooksonline.com/organizations-teams
p46
S'xxi'
p47
tp48
a(Vhttp://www.safaribooksonline.com/organizations-teams
p49
S'xxi'
p50
tp51
a(Vhttp://www.safaribooksonline.com/government
p52
S'xxi'
p53
tp54
a(Vhttp://www.safaribooksonline.com/individuals
p55
S'xxi'
p56
tp57
a(Vhttp://www.safaribooksonline.com/publishers
p58
S'xxi'
p59
tp60
a(Vhttp://www.safaribooksonline.com/
p61
S'xxi'
p62
tp63
a(Vhttp://bit.ly/fluent-python
p64
S'xxi'
p65
tp66
a(Vmailto:bookquestions@oreilly.com
p67
S'xxi'
p68
tp69
a(Vmailto:bookquestions@oreilly.com
p70
S'xxi'
p71
tp72
a(Vhttp://www.oreilly.com
p73
S'xxi'
p74
tp75
a(Vhttp://facebook.com/oreilly
p76
S'|  Preface'
p77
tp78
a(Vhttp://twitter.com/oreillymedia
p79
S'|  Preface'
p80
tp81
a(Vhttp://www.youtube.com/oreillymedia
p82
S'|  Preface'
p83
tp84
a(Vhttp://stackoverflow.com/users/95810/alex-martelli
p85
S'|  Preface'
p86
tp87
a(Vhttp://python.pro.br
p88
S'|  Preface'
p89
tp90
a(Vhttps://groups.google.com/group/python-brasil
p91
S'xxiii'
p92
tp93
a(Vhttps://groups.google.com/group/python-brasil
p94
S'xxiii'
p95
tp96
a(Vhttp://coffeelab.com.br/
p97
S'xxiii'
p98
tp99
a(Vhttps://garoa.net.br/
p100
S'xxiii'
p101
tp102
a(Vhttp://hugunin.net/story_of_jython.html
p103
S'3'
p104
tp105
a(Vhttp://bit.ly/jython-essentials
p106
g104
tp107
a(Vhttp://bit.ly/1Vm72Mf
p108
S'Chapter 1: The Python Data Model'
p109
tp110
a(Vhttps://mail.python.org/pipermail/python-list/2002-September/112991.html
p111
S'Chapter 1: The Python Data Model'
p112
tp113
a(Vhttps://mail.python.org/pipermail/python-list/2002-September/114716.html
p114
S'Chapter 1: The Python Data Model'
p115
tp116
a(Vhttp://bit.ly/1Vm7gD1
p117
S'11'
p118
tp119
a(Vhttp://bit.ly/1Vm7j1N
p120
S'11'
p121
tp122
a(Vhttp://docs.python.org/3/library/stdtypes.html#truth
p123
S'Chapter 1: The Python Data Model'
p124
tp125
a(Vhttp://docs.python.org/3/reference/datamodel.html
p126
S'13'
p127
tp128
a(Vhttps://www.python.org/doc/humor/#the-zen-of-python
p129
S'Chapter 1: The Python Data Model'
p130
tp131
a(Vhttp://docs.python.org/3/reference/datamodel.html
p132
S'15'
p133
tp134
a(Vhttp://bit.ly/Python-IAN
p135
S'15'
p136
tp137
a(Vhttp://stackoverflow.com/users/95810/alex-martelli
p138
S'15'
p139
tp140
a(Vhttp://bit.ly/Python-ckbk
p141
S'15'
p142
tp143
a(Vhttp://bit.ly/Python-ckbk
p144
S'15'
p145
tp146
a(Vhttp://en.wikipedia.org/wiki/Object_model
p147
S'Chapter 1: The Python Data Model'
p148
tp149
a(Vhttp://en.wikipedia.org/wiki/Object_model
p150
S'Chapter 1: The Python Data Model'
p151
tp152
a(Vhttps://docs.python.org/3/reference/datamodel.html
p153
S'Chapter 1: The Python Data Model'
p154
tp155
a(Vhttp://docs.zope.org/zope.interface/
p156
S'Chapter 1: The Python Data Model'
p157
tp158
a(Vhttp://bit.ly/1Vm6R3n
p159
S'23'
p160
tp161
a(Vhttp://bit.ly/1Vm6R3n
p162
S'23'
p163
tp164
a(Vhttps://github.com/fluentpython/example-code
p165
S'23'
p166
tp167
a(Vhttp://python.org/dev/peps/pep-3132/
p168
S'Chapter 2: An Array of Sequences'
p169
tp170
a(Vhttp://python.org/dev/peps/pep-3132/
p171
S'Chapter 2: An Array of Sequences'
p172
tp173
a(Vhttp://docs.python.org/3/library/gettext.html
p174
S'29'
p175
tp176
a(Vhttp://docs.python.org/3/library/gettext.html
p177
S'29'
p178
tp179
a(Vhttp://python.org/dev/peps/pep-3113/
p180
S'Chapter 2: An Array of Sequences'
p181
tp182
a(Vhttp://python.org/dev/peps/pep-3113/
p183
S'Chapter 2: An Array of Sequences'
p184
tp185
a(Vhttp://wiki.scipy.org/Tentative_NumPy_Tutorial
p186
S'35'
p187
tp188
a(Vhttp://wiki.scipy.org/Tentative_NumPy_Tutorial
p189
S'35'
p190
tp191
a(Vhttp://www.pythontutor.com/
p192
S'Chapter 2: An Array of Sequences'
p193
tp194
a(Vhttp://en.wikipedia.org/wiki/Fluent_interface
p195
S'Chapter 2: An Array of Sequences'
p196
tp197
a(Vhttp://bit.ly/1Vm6WEa
p198
S'Chapter 2: An Array of Sequences'
p199
tp200
a(Vhttp://bit.ly/1Vm6WEa
p201
S'Chapter 2: An Array of Sequences'
p202
tp203
a(Vhttps://docs.python.org/3/library/bisect.html
p204
S'Chapter 2: An Array of Sequences'
p205
tp206
a(Vhttp://bit.ly/py-pickle
p207
S'49'
p208
tp209
a(Vhttp://bit.ly/1Vm6C8B
p210
S'51'
p211
tp212
a(Vhttp://www.netlib.org
p213
S'Chapter 2: An Array of Sequences'
p214
tp215
a(Vhttp://www.netlib.org
p216
S'Chapter 2: An Array of Sequences'
p217
tp218
a(Vhttp://www.scipy.org/install.html
p219
S'Chapter 2: An Array of Sequences'
p220
tp221
a(Vhttp://www.scipy.org/install.html
p222
S'Chapter 2: An Array of Sequences'
p223
tp224
a(Vhttp://pandas.pydata.org
p225
S'Chapter 2: An Array of Sequences'
p226
tp227
a(Vhttp://blaze.pydata.org/en/latest/
p228
S'Chapter 2: An Array of Sequences'
p229
tp230
a(Vhttp://bit.ly/Python-ckbk
p231
S'59'
p232
tp233
a(Vhttp://docs.python.org/3/howto/sorting.html
p234
S'59'
p235
tp236
a(Vhttp://python.org/dev/peps/pep-3132/
p237
S'59'
p238
tp239
a(Vhttp://bugs.python.org/issue2292
p240
S'59'
p241
tp242
a(Vhttps://www.python.org/dev/peps/pep-0448/
p243
S'59'
p244
tp245
a(Vhttp://bit.ly/1Vm6K7Y
p246
S'59'
p247
tp248
a(Vhttp://bit.ly/1Vm6K7Y
p249
S'59'
p250
tp251
a(Vhttp://bit.ly/py-data-analysis
p252
S'59'
p253
tp254
a(Vhttp://ipython.org/notebook.html
p255
S'59'
p256
tp257
a(Vhttps://docs.python.org/3/library/collections.html
p258
S'59'
p259
tp260
a(Vhttps://www.cs.utexas.edu/users/EWD/transcriptions/EWD08xx/EWD831.html
p261
S'Chapter 2: An Array of Sequences'
p262
tp263
a(Vhttps://www.cs.utexas.edu/users/EWD/transcriptions/EWD08xx/EWD831.html
p264
S'Chapter 2: An Array of Sequences'
p265
tp266
a(Vhttps://docs.python.org/3/reference/datamodel.html#objects-values-and-types
p267
S'61'
p268
tp269
a(Vhttps://docs.python.org/3/reference/datamodel.html#objects-values-and-types
p270
S'61'
p271
tp272
a(Vhttp://en.wikipedia.org/wiki/Timsort
p273
S'Chapter 2: An Array of Sequences'
p274
tp275
a(Vhttp://bit.ly/1Vm6Ool
p276
S'Chapter 2: An Array of Sequences'
p277
tp278
a(Vhttps://www.python.org/doc/humor/#id9
p279
S'Chapter 2: An Array of Sequences'
p280
tp281
a(Vhttps://www.python.org/doc/humor/#id9
p282
S'Chapter 2: An Array of Sequences'
p283
tp284
a(Vhttp://bit.ly/1K4qjwE
p285
S'65'
p286
tp287
a(Vhttp://bit.ly/1K4qjwE
p288
S'65'
p289
tp290
a(Vhttp://bit.ly/1QS9Ong
p291
S'65'
p292
tp293
a(Vhttp://bit.ly/1QS9Ong
p294
S'65'
p295
tp296
a(Vhttp://bit.ly/1QmmPFj
p297
S'Chapter 3: Dictionaries and Sets'
p298
tp299
a(Vhttp://www.pingo.io/docs/
p300
S'Chapter 3: Dictionaries and Sets'
p301
tp302
a(Vhttp://bit.ly/1Vm7E4q
p303
S'Chapter 3: Dictionaries and Sets'
p304
tp305
a(Vhttp://bit.ly/1Vm7E4q
p306
S'Chapter 3: Dictionaries and Sets'
p307
tp308
a(Vhttp://bit.ly/1Vm7I4c:
p309
S'75'
p310
tp311
a(Vhttp://bit.ly/1JHVi2E
p312
S'75'
p313
tp314
a(Vhttp://bit.ly/1FEOPPB
p315
S'77'
p316
tp317
a(Vhttps://www.python.org/dev/peps/pep-0455/
p318
S'77'
p319
tp320
a(Vhttps://www.python.org/dev/peps/pep-0455/
p321
S'77'
p322
tp323
a(Vhttp://bugs.python.org/issue18986
p324
S'77'
p325
tp326
a(Vhttp://bit.ly/1Vm7OJ5
p327
S'77'
p328
tp329
a(Vhttps://github.com/fluentpython/example-code
p330
S'77'
p331
tp332
a(Vhttps://github.com/fluentpython/example-code
p333
S'77'
p334
tp335
a(Vhttp://bugs.python.org/issue8743
p336
S'Chapter 3: Dictionaries and Sets'
p337
tp338
a(Vhttp://hg.python.org/cpython/file/tip/Objects/dictobject.c
p339
S'87'
p340
tp341
a(Vhttp://bit.ly/1FESm0m
p342
S'Chapter 3: Dictionaries and Sets'
p343
tp344
a(Vhttp://bit.ly/1FESm0m
p345
S'Chapter 3: Dictionaries and Sets'
p346
tp347
a(Vhttp://bit.ly/1JzB8rA
p348
S'89'
p349
tp350
a(Vhttps://docs.python.org/3/library/collections.html
p351
S'Chapter 3: Dictionaries and Sets'
p352
tp353
a(Vhttp://shop.oreilly.com/product/0636920027072.do
p354
S'Chapter 3: Dictionaries and Sets'
p355
tp356
a(Vhttp://oreil.ly/1LGCRLr
p357
S'Chapter 3: Dictionaries and Sets'
p358
tp359
a(Vhttp://hg.python.org/cpython/file/tip/Objects/dictobject.c
p360
S'Chapter 3: Dictionaries and Sets'
p361
tp362
a(Vhttp://bit.ly/1JzEjiR
p363
S'Chapter 3: Dictionaries and Sets'
p364
tp365
a(Vhttps://www.python.org/dev/peps/pep-0218/
p366
S'Chapter 3: Dictionaries and Sets'
p367
tp368
a(Vhttps://www.python.org/dev/peps/pep-0218/
p369
S'Chapter 3: Dictionaries and Sets'
p370
tp371
a(Vhttps://www.python.org/dev/peps/pep-0274/
p372
S'Chapter 3: Dictionaries and Sets'
p373
tp374
a(Vhttp://php.net/manual/en/language.types.array.php
p375
S'Chapter 3: Dictionaries and Sets'
p376
tp377
a(Vhttp://www.json.org/fatfree.html
p378
S'95'
p379
tp380
a(Vhttp://bit.ly/1JzF1MY
p381
S'97'
p382
tp383
a(Vhttp://bit.ly/1JzF37P
p384
S'97'
p385
tp386
a(Vhttps://www.python.org/dev/peps/pep-0461/
p387
S'101'
p388
tp389
a(Vhttps://www.python.org/dev/peps/pep-0461/
p390
S'101'
p391
tp392
a(Vhttps://www.python.org/dev/peps/pep-0467/
p393
S'101'
p394
tp395
a(Vhttps://pillow.readthedocs.org/en/latest/
p396
S'Chapter 4: Text versus Bytes'
p397
tp398
a(Vhttps://docs.python.org/3/library/mmap.html
p399
S'103'
p400
tp401
a(Vhttp://bit.ly/1Vm7ZnI
p402
S'103'
p403
tp404
a(Vhttp://bit.ly/1Vm7ZnI
p405
S'103'
p406
tp407
a(Vhttp://bit.ly/1Vm7YjA
p408
S'103'
p409
tp410
a(Vhttp://bit.ly/w3techs-en
p411
S'105'
p412
tp413
a(Vhttp://trends.builtwith.com/encoding
p414
S'105'
p415
tp416
a(Vhttp://bit.ly/1Vm83DZ
p417
S'Chapter 4: Text versus Bytes'
p418
tp419
a(Vhttps://pypi.python.org/pypi/chardet
p420
S'109'
p421
tp422
a(Vhttp://nedbatchelder.com/text/unipain/unipain.html
p423
S'111'
p424
tp425
a(Vhttp://bit.ly/1IqvCUZ
p426
S'115'
p427
tp428
a(Vhttp://bit.ly/1IqvCUZ
p429
S'115'
p430
tp431
a(Vhttp://bit.ly/1IqvSU2
p432
S'Chapter 4: Text versus Bytes'
p433
tp434
a(Vhttp://bit.ly/1IqvN2J
p435
S'Chapter 4: Text versus Bytes'
p436
tp437
a(Vhttps://docs.python.org/3/howto/unicode.html
p438
S'Chapter 4: Text versus Bytes'
p439
tp440
a(Vhttp://bit.ly/1IqvRPV
p441
S'Chapter 4: Text versus Bytes'
p442
tp443
a(Vhttp://bit.ly/1IqvYLp
p444
S'Chapter 4: Text versus Bytes'
p445
tp446
a(Vhttp://www.w3.org/TR/charmod-norm/
p447
S'Chapter 4: Text versus Bytes'
p448
tp449
a(Vhttp://www.w3.org/TR/charmod-norm/
p450
S'Chapter 4: Text versus Bytes'
p451
tp452
a(Vhttp://bit.ly/1IqyCRf
p453
S'125'
p454
tp455
a(Vhttp://bit.ly/1IqyKAl
p456
S'Chapter 4: Text versus Bytes'
p457
tp458
a(Vhttp://bit.ly/1IqyP79
p459
S'Chapter 4: Text versus Bytes'
p460
tp461
a(Vhttps://pypi.python.org/pypi/pyuca/
p462
S'Chapter 4: Text versus Bytes'
p463
tp464
a(Vhttps://github.com/jtauber/pyuca
p465
S'127'
p466
tp467
a(Vhttp://bit.ly/1IqAk54
p468
S'127'
p469
tp470
a(Vhttps://docs.python.org/3/library/unicodedata.html
p471
S'Chapter 4: Text versus Bytes'
p472
tp473
a(Vhttps://docs.python.org/3/library/unicodedata.html
p474
S'Chapter 4: Text versus Bytes'
p475
tp476
a(Vhttp://bit.ly/1IqE2vH
p477
S'129'
p478
tp479
a(Vhttp://bit.ly/1IqE2vH
p480
S'129'
p481
tp482
a(Vhttps://docs.python.org/3/library/re.html
p483
S'Chapter 4: Text versus Bytes'
p484
tp485
a(Vhttps://www.python.org/dev/peps/pep-0383/
p486
S'131'
p487
tp488
a(Vhttps://www.python.org/dev/peps/pep-0383/
p489
S'131'
p490
tp491
a(Vhttp://nedbatchelder.com/text/unipain.html
p492
S'133'
p493
tp494
a(Vhttp://nedbatchelder.com/text/unipain.html
p495
S'133'
p496
tp497
a(Vhttp://bit.ly/1JzF1MY
p498
S'133'
p499
tp500
a(Vhttp://bit.ly/1JzF37P
p501
S'133'
p502
tp503
a(Vhttps://regebro.wordpress.com/2011/03/23/unconfusing-unicode-what-is-unicode/
p504
S'133'
p505
tp506
a(Vhttps://docs.python.org/3/howto/unicode.html
p507
S'133'
p508
tp509
a(Vhttp://www.diveintopython3.net/strings.html
p510
S'133'
p511
tp512
a(Vhttp://www.diveintopython3.net
p513
S'Chapter 4: Text versus Bytes'
p514
tp515
a(Vhttp://bit.ly/1IqJ63d
p516
S'Chapter 4: Text versus Bytes'
p517
tp518
a(Vhttp://bit.ly/1IqJ8YH
p519
S'Chapter 4: Text versus Bytes'
p520
tp521
a(Vhttp://bit.ly/1IqJ8YH
p522
S'Chapter 4: Text versus Bytes'
p523
tp524
a(Vhttp://bit.ly/1IqJcrD
p525
S'Chapter 4: Text versus Bytes'
p526
tp527
a(Vhttp://bit.ly/1IqJcrD
p528
S'Chapter 4: Text versus Bytes'
p529
tp530
a(Vhttp://shop.oreilly.com/product/0636920027072.do
p531
S'Chapter 4: Text versus Bytes'
p532
tp533
a(Vhttp://bit.ly/1dYuNJa
p534
S'Chapter 4: Text versus Bytes'
p535
tp536
a(Vhttp://bit.ly/1dYuNJa
p537
S'Chapter 4: Text versus Bytes'
p538
tp539
a(Vhttp://bit.ly/1dYuRbS
p540
S'Chapter 4: Text versus Bytes'
p541
tp542
a(Vhttps://www.python.org/dev/peps/pep-0467/
p543
S'Chapter 4: Text versus Bytes'
p544
tp545
a(Vhttps://www.python.org/dev/peps/pep-0467/
p546
S'Chapter 4: Text versus Bytes'
p547
tp548
a(Vhttps://www.python.org/dev/peps/pep-0461/
p549
S'Chapter 4: Text versus Bytes'
p550
tp551
a(Vhttps://docs.python.org/3/library/codecs.html#standard-encodings
p552
S'Chapter 4: Text versus Bytes'
p553
tp554
a(Vhttp://bit.ly/1IqKrqD
p555
S'Chapter 4: Text versus Bytes'
p556
tp557
a(Vhttp://bit.ly/1IqKu5I
p558
S'Chapter 4: Text versus Bytes'
p559
tp560
a(Vhttp://blog.ziade.org/2008/01/08/syssetdefaultencoding-is-evil/
p561
S'Chapter 4: Text versus Bytes'
p562
tp563
a(Vhttp://shop.oreilly.com/product/9780596101213.do
p564
S'Chapter 4: Text versus Bytes'
p565
tp566
a(Vhttp://bit.ly/1dYveDl
p567
S'Chapter 4: Text versus Bytes'
p568
tp569
a(Vhttp://bit.ly/1dYveDl
p570
S'Chapter 4: Text versus Bytes'
p571
tp572
a(Vhttp://unicodebook.readthedocs.org/index.html
p573
S'Chapter 4: Text versus Bytes'
p574
tp575
a(Vhttp://www.w3.org/International/wiki/Case_folding
p576
S'135'
p577
tp578
a(Vhttp://www.w3.org/TR/charmod-norm/
p579
S'135'
p580
tp581
a(Vhttp://www.w3.org/TR/charmod-norm/
p582
S'135'
p583
tp584
a(Vhttp://unicode.org/reports/tr15/
p585
S'135'
p586
tp587
a(Vhttp://unicode.org/reports/tr15/
p588
S'135'
p589
tp590
a(Vhttp://www.unicode.org/faq/normalization.html
p591
S'135'
p592
tp593
a(Vhttp://www.unicode.org/
p594
S'135'
p595
tp596
a(Vhttp://www.macchiato.com/unicode/nfc-faq
p597
S'135'
p598
tp599
a(Vhttp://www.unicode.org/glossary/#plain_text
p600
S'135'
p601
tp602
a(Vhttp://www.methods.co.nz/asciidoc/
p603
S'135'
p604
tp605
a(Vhttps://atlas.oreilly.com/
p606
S'135'
p607
tp608
a(Vhttps://www.python.org/dev/peps/pep-0393/
p609
S'Chapter 4: Text versus Bytes'
p610
tp611
a(Vhttps://www.python.org/dev/peps/pep-0393/
p612
S'Chapter 4: Text versus Bytes'
p613
tp614
a(Vhttp://bit.ly/1FHfhIo
p615
S'139'
p616
tp617
a(Vhttp://docs.python.org/3/howto/functional.html
p618
S'Chapter 5: First-Class Functions'
p619
tp620
a(Vhttps://docs.djangoproject.com/en/1.5/ref/contrib/admin
p621
S'147'
p622
tp623
a(Vhttps://www.python.org/dev/peps/pep-3155/
p624
S'Chapter 5: First-Class Functions'
p625
tp626
a(Vhttp://bit.ly/1Vm8cqQ
p627
S'161'
p628
tp629
a(Vhttp://shop.oreilly.com/product/0636920027072.do
p630
S'Chapter 5: First-Class Functions'
p631
tp632
a(Vhttp://bit.ly/1Vm8dv2
p633
S'Chapter 5: First-Class Functions'
p634
tp635
a(Vhttps://www.python.org/dev/peps/pep-3102/
p636
S'Chapter 5: First-Class Functions'
p637
tp638
a(Vhttps://www.python.org/dev/peps/pep-3102/
p639
S'Chapter 5: First-Class Functions'
p640
tp641
a(Vhttps://www.python.org/dev/peps/pep-3107/
p642
S'Chapter 5: First-Class Functions'
p643
tp644
a(Vhttp://bit.ly/1FHiOXf
p645
S'Chapter 5: First-Class Functions'
p646
tp647
a(Vhttp://bit.ly/1FHiOXf
p648
S'Chapter 5: First-Class Functions'
p649
tp650
a(Vhttp://bit.ly/1FHiN5F
p651
S'Chapter 5: First-Class Functions'
p652
tp653
a(Vhttps://www.python.org/dev/peps/pep-0362/
p654
S'Chapter 5: First-Class Functions'
p655
tp656
a(Vhttp://docs.python.org/3/howto/functional.html
p657
S'Chapter 5: First-Class Functions'
p658
tp659
a(Vhttp://docs.python.org/3/howto/functional.html
p660
S'Chapter 5: First-Class Functions'
p661
tp662
a(Vhttps://github.com/kachayev/fn.py
p663
S'Chapter 5: First-Class Functions'
p664
tp665
a(Vhttp://bit.ly/1FHiTdh
p666
S'163'
p667
tp668
a(Vhttp://bobo.readthedocs.org/en/latest/
p669
S'163'
p670
tp671
a(Vhttp://bit.ly/1FHiUxR
p672
S'163'
p673
tp674
a(Vhttp://bit.ly/1FHj4p2
p675
S'163'
p676
tp677
a(Vhttp://bit.ly/1FHfhIo
p678
S'Chapter 5: First-Class Functions'
p679
tp680
a(Vhttp://bit.ly/1FHfhIo
p681
S'Chapter 5: First-Class Functions'
p682
tp683
a(Vhttp://hg.python.org/cpython/file/default/Misc/HISTORY
p684
S'Chapter 5: First-Class Functions'
p685
tp686
a(Vhttp://bit.ly/1FHjdZv
p687
S'Chapter 5: First-Class Functions'
p688
tp689
a(Vhttp://bit.ly/1FHjdZv
p690
S'Chapter 5: First-Class Functions'
p691
tp692
a(Vhttp://norvig.com/design-patterns/
p693
S'167'
p694
tp695
a(Vhttp://norvig.com/design-patterns/
p696
S'167'
p697
tp698
a(Vhttp://bit.ly/1HGC0r5
p699
S'179'
p700
tp701
a(Vhttp://bit.ly/1HGC0r5
p702
S'179'
p703
tp704
a(Vhttp://shop.oreilly.com/product/0636920027072.do
p705
S'Chapter 6: Design Patterns with First-Class Functions'
p706
tp707
a(Vhttp://shop.oreilly.com/product/0636920027072.do
p708
S'Chapter 6: Design Patterns with First-Class Functions'
p709
tp710
a(Vhttp://bit.ly/1HGBXvx
p711
S'181'
p712
tp713
a(Vhttp://www.aleax.it/gdd_pydp.pdf
p714
S'181'
p715
tp716
a(Vhttp://bit.ly/1HGBXeQ
p717
S'181'
p718
tp719
a(Vhttp://norvig.com/design-patterns/
p720
S'181'
p721
tp722
a(Vhttp://norvig.com/design-patterns/
p723
S'181'
p724
tp725
a(Vhttp://docs.python.org/3/library/dis.html
p726
S'Chapter 7: Function Decorators and Closures'
p727
tp728
a(Vhttp://docs.python.org/3/library/dis.html
p729
S'Chapter 7: Function Decorators and Closures'
p730
tp731
a(Vhttp://www.python.org/dev/peps/pep-3104/
p732
S'Chapter 7: Function Decorators and Closures'
p733
tp734
a(Vhttp://www.python.org/dev/peps/pep-3104/
p735
S'Chapter 7: Function Decorators and Closures'
p736
tp737
a(Vhttps://pypi.python.org/pypi/singledispatch
p738
S'203'
p739
tp740
a(Vhttps://pypi.python.org/pypi/singledispatch
p741
S'203'
p742
tp743
a(Vhttps://www.python.org/dev/peps/pep-0443/
p744
S'205'
p745
tp746
a(Vhttps://www.python.org/dev/peps/pep-0443/
p747
S'205'
p748
tp749
a(Vhttp://bit.ly/1DePPcl
p750
S'Chapter 7: Function Decorators and Closures'
p751
tp752
a(Vhttp://bit.ly/1DePVRi
p753
S'Chapter 7: Function Decorators and Closures'
p754
tp755
a(Vhttp://bit.ly/1DePVRi
p756
S'Chapter 7: Function Decorators and Closures'
p757
tp758
a(Vhttp://wrapt.readthedocs.org/en/latest/
p759
S'Chapter 7: Function Decorators and Closures'
p760
tp761
a(Vhttps://pypi.python.org/pypi/decorator
p762
S'Chapter 7: Function Decorators and Closures'
p763
tp764
a(Vhttps://wiki.python.org/moin/PythonDecoratorLibrary
p765
S'Chapter 7: Function Decorators and Closures'
p766
tp767
a(Vhttps://wiki.python.org/moin/PythonDecoratorLibrary
p768
S'Chapter 7: Function Decorators and Closures'
p769
tp770
a(Vhttp://www.python.org/dev/peps/pep-0443/
p771
S'Chapter 7: Function Decorators and Closures'
p772
tp773
a(Vhttp://www.artima.com/weblogs/viewpost.jsp?thread=101605
p774
S'Chapter 7: Function Decorators and Closures'
p775
tp776
a(Vhttp://www.artima.com/weblogs/viewpost.jsp?thread=101605
p777
S'Chapter 7: Function Decorators and Closures'
p778
tp779
a(Vhttp://reg.readthedocs.org/en/latest/
p780
S'Chapter 7: Function Decorators and Closures'
p781
tp782
a(Vhttp://morepath.readthedocs.org/en/latest/
p783
S'Chapter 7: Function Decorators and Closures'
p784
tp785
a(Vhttp://effbot.org/zone/closure.htm
p786
S'Chapter 7: Function Decorators and Closures'
p787
tp788
a(Vhttp://www.python.org/dev/peps/pep-3104/
p789
S'Chapter 7: Function Decorators and Closures'
p790
tp791
a(Vhttp://www.python.org/dev/peps/pep-0227/
p792
S'Chapter 7: Function Decorators and Closures'
p793
tp794
a(Vhttp://www.paulgraham.com/rootsoflisp.html
p795
S'213'
p796
tp797
a(Vhttp://bit.ly/mccarthy_recursive
p798
S'213'
p799
tp800
a(Vhttp://bit.ly/mccarthy_recursive
p801
S'213'
p802
tp803
a(Vhttp://bit.ly/1Vm9gv4
p804
S'223'
p805
tp806
a(Vhttp://www.pythontutor.com/
p807
S'225'
p808
tp809
a(Vhttp://www.pythontutor.com/
p810
S'225'
p811
tp812
a(Vhttp://docs.python.org/3/library/copy.html
p813
S'229'
p814
tp815
a(Vhttp://bit.ly/1GsWPac
p816
S'235'
p817
tp818
a(Vhttp://bit.ly/1GsWPac
p819
S'235'
p820
tp821
a(Vhttp://bit.ly/1GsWTa7
p822
S'235'
p823
tp824
a(Vhttp://bit.ly/1GsWTa7
p825
S'235'
p826
tp827
a(Vhttp://docs.python.org/3/library/weakref.html
p828
S'237'
p829
tp830
a(Vhttp://bit.ly/1GsXB6Z
p831
S'239'
p832
tp833
a(Vhttp://bit.ly/1GsZwss
p834
S'243'
p835
tp836
a(Vhttp://bit.ly/1GsZvEO
p837
S'243'
p838
tp839
a(Vhttp://bit.ly/1HGCayS
p840
S'243'
p841
tp842
a(Vhttp://pymotw.com
p843
S'243'
p844
tp845
a(Vhttp://pymotw.com
p846
S'243'
p847
tp848
a(Vhttp://bit.ly/py-libex
p849
S'243'
p850
tp851
a(Vhttp://pymotw.com/2/copy/
p852
S'243'
p853
tp854
a(Vhttp://pymotw.com/2/copy/
p855
S'243'
p856
tp857
a(Vhttp://pymotw.com/2/weakref/
p858
S'243'
p859
tp860
a(Vhttp://bit.ly/1HGCbmj
p861
S'243'
p862
tp863
a(Vhttp://bit.ly/1GsZwss
p864
S'243'
p865
tp866
a(Vhttp://bit.ly/1FSDBpM
p867
S'243'
p868
tp869
a(Vhttp://bit.ly/1FSDBpM
p870
S'243'
p871
tp872
a(Vhttp://bit.ly/1HGCde7
p873
S'243'
p874
tp875
a(Vhttp://bit.ly/1HGCduC
p876
S'243'
p877
tp878
a(Vhttp://bit.ly/1Gt0HrJ
p879
S'245'
p880
tp881
a(Vhttp://pythonpaste.org/StyleGuide.html
p882
S'247'
p883
tp884
a(Vhttp://bit.ly/1FSFTW6
p885
S'253'
p886
tp887
a(Vhttp://bit.ly/1FSFTW6
p888
S'253'
p889
tp890
a(Vhttp://bit.ly/1Gt4vJF
p891
S'Chapter 9: A Pythonic Object'
p892
tp893
a(Vhttp://bit.ly/1Gt4vJF
p894
S'Chapter 9: A Pythonic Object'
p895
tp896
a(Vhttp://bit.ly/1Gt4vJF
p897
S'Chapter 9: A Pythonic Object'
p898
tp899
a(Vhttp://bit.ly/1Gt4vJF
p900
S'Chapter 9: A Pythonic Object'
p901
tp902
a(Vhttp://bit.ly/1Gt4vJF
p903
S'255'
p904
tp905
a(Vhttp://bit.ly/1Gt4vJF
p906
S'255'
p907
tp908
a(Vhttps://docs.python.org/3/reference/datamodel.html
p909
S'Chapter 9: A Pythonic Object'
p910
tp911
a(Vhttp://pythonpaste.org/StyleGuide.html
p912
S'Chapter 9: A Pythonic Object'
p913
tp914
a(Vhttp://bit.ly/1Gt95rp
p915
S'Chapter 9: A Pythonic Object'
p916
tp917
a(Vhttp://bit.ly/1Gt9cDg
p918
S'Chapter 9: A Pythonic Object'
p919
tp920
a(Vhttp://www.numpy.org
p921
S'267'
p922
tp923
a(Vhttp://pandas.pydata.org
p924
S'267'
p925
tp926
a(Vhttps://docs.python.org/3/library/string.html#formatspec
p927
S'Chapter 9: A Pythonic Object'
p928
tp929
a(Vhttp://bit.ly/1GsZwss
p930
S'271'
p931
tp932
a(Vhttp://bit.ly/1Vma6b2
p933
S'271'
p934
tp935
a(Vhttp://bit.ly/1Vma6b2
p936
S'271'
p937
tp938
a(Vhttp://shop.oreilly.com/product/9780596100469.do
p939
S'271'
p940
tp941
a(Vhttp://shop.oreilly.com/product/0636920027072.do
p942
S'271'
p943
tp944
a(Vhttps://docs.python.org/2.5/whatsnew/pep-357.html
p945
S'271'
p946
tp947
a(Vhttps://www.python.org/dev/peps/pep-0357/
p948
S'271'
p949
tp950
a(Vhttps://www.python.org/dev/peps/pep-0357/
p951
S'271'
p952
tp953
a(Vhttp://bit.ly/1IIKX6t
p954
S'271'
p955
tp956
a(Vhttp://bit.ly/1IIKX6t
p957
S'271'
p958
tp959
a(Vhttp://www.artima.com/intv/simplest3.html
p960
S'273'
p961
tp962
a(Vhttps://github.com/fluentpython/example-code
p963
S'Chapter 9: A Pythonic Object'
p964
tp965
a(Vhttp://bit.ly/1IIMdqd
p966
S'Chapter 9: A Pythonic Object'
p967
tp968
a(Vhttp://en.wikipedia.org/wiki/Vector_space_model
p969
S'Chapter 10: Sequence Hacking, Hashing, and Slicing'
p970
tp971
a(Vhttps://pypi.python.org/pypi/gensim
p972
S'Chapter 10: Sequence Hacking, Hashing, and Slicing'
p973
tp974
a(Vhttps://docs.python.org/3/c-api/slice.html#c.PySlice_GetIndicesEx
p975
S'283'
p976
tp977
a(Vhttp://bit.ly/1QOtsk8
p978
S'293'
p979
tp980
a(Vhttp://mathworld.wolfram.com/Hypersphere.html
p981
S'Chapter 10: Sequence Hacking, Hashing, and Slicing'
p982
tp983
a(Vhttp://en.wikipedia.org/wiki/N-sphere
p984
S'Chapter 10: Sequence Hacking, Hashing, and Slicing'
p985
tp986
a(Vhttp://en.wikipedia.org/wiki/N-sphere
p987
S'Chapter 10: Sequence Hacking, Hashing, and Slicing'
p988
tp989
a(Vhttps://docs.python.org/3/library/string.html#formatspec
p990
S'Chapter 10: Sequence Hacking, Hashing, and Slicing'
p991
tp992
a(Vhttp://en.wikipedia.org/wiki/N-sphere
p993
S'Chapter 10: Sequence Hacking, Hashing, and Slicing'
p994
tp995
a(Vhttp://en.wikipedia.org/wiki/N-sphere
p996
S'Chapter 10: Sequence Hacking, Hashing, and Slicing'
p997
tp998
a(Vhttp://en.wikipedia.org/wiki/N-sphere
p999
S'Chapter 10: Sequence Hacking, Hashing, and Slicing'
p1000
tp1001
a(Vhttp://en.wikipedia.org/wiki/Fold_(higher-order_function)
p1002
S'Chapter 10: Sequence Hacking, Hashing, and Slicing'
p1003
tp1004
a(Vhttp://en.wikipedia.org/wiki/Fold_(higher-order_function)
p1005
S'Chapter 10: Sequence Hacking, Hashing, and Slicing'
p1006
tp1007
a(Vhttp://bit.ly/pydocs-smn
p1008
S'303'
p1009
tp1010
a(Vhttp://en.wikipedia.org/wiki/KISS_principle
p1011
S'303'
p1012
tp1013
a(Vhttp://en.wikipedia.org/wiki/KISS_principle
p1014
S'303'
p1015
tp1016
a(Vhttp://bit.ly/1QOuTPx
p1017
S'303'
p1018
tp1019
a(Vhttp://bit.ly/1QOuTPx
p1020
S'303'
p1021
tp1022
a(Vhttp://en.wikipedia.org/wiki/Duck_typing
p1023
S'303'
p1024
tp1025
a(Vhttps://github.com/fluentpython/example-code
p1026
S'303'
p1027
tp1028
a(Vhttps://mail.python.org/mailman/listinfo/python-list
p1029
S'Chapter 10: Sequence Hacking, Hashing, and Slicing'
p1030
tp1031
a(Vhttp://bit.ly/1QOv5y5
p1032
S'Chapter 10: Sequence Hacking, Hashing, and Slicing'
p1033
tp1034
a(Vhttp://bit.ly/1QOv5y5
p1035
S'Chapter 10: Sequence Hacking, Hashing, and Slicing'
p1036
tp1037
a(Vhttp://bit.ly/1QOxU2e
p1038
S'309'
p1039
tp1040
a(Vhttp://bit.ly/1MDR1Lw
p1041
S'309'
p1042
tp1043
a(Vhttp://bugs.python.org/issue16518
p1044
S'Chapter 11: Interfaces: From Protocols to ABCs'
p1045
tp1046
a(Vhttp://bugs.python.org/issue22581
p1047
S'Chapter 11: Interfaces: From Protocols to ABCs'
p1048
tp1049
a(Vhttp://bugs.python.org/issue22581
p1050
S'Chapter 11: Interfaces: From Protocols to ABCs'
p1051
tp1052
a(Vhttps://docs.python.org/3/library/random.html#random.shuffle
p1053
S'Chapter 11: Interfaces: From Protocols to ABCs'
p1054
tp1055
a(Vhttp://bit.ly/1QOyDQY
p1056
S'313'
p1057
tp1058
a(Vhttp://en.wikipedia.org/wiki/Duck_typing#History
p1059
S'Chapter 11: Interfaces: From Protocols to ABCs'
p1060
tp1061
a(Vhttp://ptgmedia.pearsoncmg.com/images/020163371x/items/item33.html
p1062
S'Chapter 11: Interfaces: From Protocols to ABCs'
p1063
tp1064
a(Vhttps://docs.python.org/3/library/collections.html#collections.namedtuple
p1065
S'Chapter 11: Interfaces: From Protocols to ABCs'
p1066
tp1067
a(Vhttp://bit.ly/1QOA3Lt
p1068
S'321'
p1069
tp1070
a(Vhttps://hg.python.org/cpython/file/3.4/Lib/abc.py
p1071
S'321'
p1072
tp1073
a(Vhttp://bit.ly/1QOA9T8
p1074
S'321'
p1075
tp1076
a(Vhttps://docs.python.org/3/library/numbers.html
p1077
S'323'
p1078
tp1079
a(Vhttps://docs.python.org/3/library/abc.html
p1080
S'Chapter 11: Interfaces: From Protocols to ABCs'
p1081
tp1082
a(Vhttps://docs.python.org/3/library/abc.html
p1083
S'Chapter 11: Interfaces: From Protocols to ABCs'
p1084
tp1085
a(Vhttp://bit.ly/1QOFpGB
p1086
S'329'
p1087
tp1088
a(Vhttps://docs.python.org/dev/library/abc.html
p1089
S'329'
p1090
tp1091
a(Vhttp://docs.python.org/3/library/os.html#os.urandom
p1092
S'Chapter 11: Interfaces: From Protocols to ABCs'
p1093
tp1094
a(Vhttps://docs.python.org/3/library/stdtypes.html#truth
p1095
S'Chapter 11: Interfaces: From Protocols to ABCs'
p1096
tp1097
a(Vhttp://bit.ly/1QOA3Lt
p1098
S'Chapter 11: Interfaces: From Protocols to ABCs'
p1099
tp1100
a(Vhttp://bit.ly/1QOA3Lt
p1101
S'Chapter 11: Interfaces: From Protocols to ABCs'
p1102
tp1103
a(Vhttp://bit.ly/1QOG4aP
p1104
S'339'
p1105
tp1106
a(Vhttps://hg.python.org/cpython/file/3.4/Lib/abc.py#l194
p1107
S'339'
p1108
tp1109
a(Vhttp://bit.ly/1QOGle5
p1110
S'341'
p1111
tp1112
a(Vhttp://pymotw.com/
p1113
S'341'
p1114
tp1115
a(Vhttps://github.com/garoa/pingo/blob/master/pingo/board.py
p1116
S'341'
p1117
tp1118
a(Vhttp://pingo.io/
p1119
S'341'
p1120
tp1121
a(Vhttp://shop.oreilly.com/product/0636920027072.do
p1122
S'Chapter 11: Interfaces: From Protocols to ABCs'
p1123
tp1124
a(Vhttp://pymotw.com/2/abc/index.html
p1125
S'Chapter 11: Interfaces: From Protocols to ABCs'
p1126
tp1127
a(Vhttp://pymotw.com/2/abc/index.html
p1128
S'Chapter 11: Interfaces: From Protocols to ABCs'
p1129
tp1130
a(Vhttps://www.python.org/dev/peps/pep-3119
p1131
S'Chapter 11: Interfaces: From Protocols to ABCs'
p1132
tp1133
a(Vhttps://www.python.org/dev/peps/pep-3141
p1134
S'Chapter 11: Interfaces: From Protocols to ABCs'
p1135
tp1136
a(Vhttps://www.python.org/dev/peps/pep-3141
p1137
S'Chapter 11: Interfaces: From Protocols to ABCs'
p1138
tp1139
a(Vhttps://docs.python.org/3/library/numbers.html
p1140
S'Chapter 11: Interfaces: From Protocols to ABCs'
p1141
tp1142
a(Vhttp://www.artima.com/intv/pycontract.html
p1143
S'343'
p1144
tp1145
a(Vhttp://www.artima.com/intv/pycontract.html
p1146
S'343'
p1147
tp1148
a(Vhttp://docs.zope.org/zope.interface/
p1149
S'343'
p1150
tp1151
a(Vhttp://bit.ly/1QOHa6x
p1152
S'343'
p1153
tp1154
a(Vhttp://muthukadan.net/docs/zca.html
p1155
S'343'
p1156
tp1157
a(Vhttp://www.mypy-lang.org/
p1158
S'343'
p1159
tp1160
a(Vhttp://bit.ly/1QOHhyX
p1161
S'343'
p1162
tp1163
a(Vhttps://www.python.org/dev/peps/pep-0484/
p1164
S'343'
p1165
tp1166
a(Vhttps://www.python.org/dev/peps/pep-0482/
p1167
S'343'
p1168
tp1169
a(Vhttps://www.python.org/dev/peps/pep-0482/
p1170
S'343'
p1171
tp1172
a(Vhttps://www.python.org/dev/peps/pep-0484/
p1173
S'343'
p1174
tp1175
a(Vhttps://www.python.org/dev/peps/pep-0484/
p1176
S'345'
p1177
tp1178
a(Vhttps://docs.oracle.com/javase/tutorial/java/IandI/defaultmethods.html
p1179
S'345'
p1180
tp1181
a(Vhttps://docs.oracle.com/javase/tutorial/java/IandI/defaultmethods.html
p1182
S'345'
p1183
tp1184
a(Vhttp://brewhouse.io/blog/2014/09/19/ruby-kaigi-2014-day-2
p1185
S'Chapter 11: Interfaces: From Protocols to ABCs'
p1186
tp1187
a(Vhttp://brewhouse.io/blog/2014/09/19/ruby-kaigi-2014-day-2
p1188
S'Chapter 11: Interfaces: From Protocols to ABCs'
p1189
tp1190
a(Vhttp://propella.sakura.ne.jp/earlyHistoryST/EarlyHistoryST.html
p1191
S'347'
p1192
tp1193
a(Vhttp://bit.ly/1JHNmhX
p1194
S'Chapter 12: Inheritance: For Good or For Worse'
p1195
tp1196
a(Vhttp://bit.ly/1JHNmhX
p1197
S'349'
p1198
tp1199
a(Vhttp://docs.python.org/3/library/collections.html
p1200
S'349'
p1201
tp1202
a(Vhttps://github.com/fluentpython/example-code
p1203
S'Chapter 12: Inheritance: For Good or For Worse'
p1204
tp1205
a(Vhttp://bit.ly/1JHNmhX
p1206
S'Chapter 12: Inheritance: For Good or For Worse'
p1207
tp1208
a(Vhttp://bit.ly/1OwVqBd
p1209
S'355'
p1210
tp1211
a(Vhttp://bit.ly/1JHPsyk
p1212
S'Chapter 12: Inheritance: For Good or For Worse'
p1213
tp1214
a(Vhttps://docs.python.org/3/library/tkinter.html
p1215
S'Chapter 12: Inheritance: For Good or For Worse'
p1216
tp1217
a(Vhttps://docs.python.org/3/library/tkinter.ttk.html
p1218
S'357'
p1219
tp1220
a(Vhttps://docs.python.org/3/library/tkinter.ttk.html
p1221
S'357'
p1222
tp1223
a(Vhttp://bit.ly/1JHQqKU
p1224
S'Chapter 12: Inheritance: For Good or For Worse'
p1225
tp1226
a(Vhttp://ccbv.co.uk/
p1227
S'363'
p1228
tp1229
a(Vhttp://ccbv.co.uk/
p1230
S'363'
p1231
tp1232
a(Vhttp://bit.ly/1JHSoe8
p1233
S'363'
p1234
tp1235
a(Vhttp://en.wikipedia.org/wiki/Template_method_pattern
p1236
S'Chapter 12: Inheritance: For Good or For Worse'
p1237
tp1238
a(Vhttps://docs.python.org/3/library/collections.html
p1239
S'Chapter 12: Inheritance: For Good or For Worse'
p1240
tp1241
a(Vhttps://docs.python.org/3/library/collections.abc.html
p1242
S'Chapter 12: Inheritance: For Good or For Worse'
p1243
tp1244
a(Vhttp://bit.ly/1QOA3Lt
p1245
S'367'
p1246
tp1247
a(Vhttp://bit.ly/1QOA3Lt
p1248
S'367'
p1249
tp1250
a(Vhttp://bit.ly/1JHSZfW
p1251
S'367'
p1252
tp1253
a(Vhttps://fuhm.net/super-harmful/
p1254
S'367'
p1255
tp1256
a(Vhttps://fuhm.net/super-harmful/
p1257
S'367'
p1258
tp1259
a(Vhttp://bit.ly/1HGpYxV
p1260
S'367'
p1261
tp1262
a(Vhttp://bit.ly/1HGpXdj
p1263
S'367'
p1264
tp1265
a(Vhttp://bit.ly/1HGpXtQ
p1266
S'367'
p1267
tp1268
a(Vhttp://bit.ly/1HGpXtQ
p1269
S'367'
p1270
tp1271
a(Vhttp://bit.ly/1HGq0G9
p1272
S'367'
p1273
tp1274
a(Vhttp://bit.ly/1HGq1d4
p1275
S'367'
p1276
tp1277
a(Vhttp://bit.ly/1HGq1K7
p1278
S'367'
p1279
tp1280
a(Vhttp://bit.ly/1HGq48I
p1281
S'367'
p1282
tp1283
a(Vhttp://www.gotw.ca/publications/c_family_interview.htm
p1284
S'371'
p1285
tp1286
a(Vhttp://bit.ly/1JHV4bN
p1287
S'Chapter 13: Operator Overloading: Doing It Right'
p1288
tp1289
a(Vhttps://docs.python.org/3/reference/datamodel.html#object.__neg__
p1290
S'Chapter 13: Operator Overloading: Doing It Right'
p1291
tp1292
a(Vhttp://bit.ly/1JHVi2E
p1293
S'Chapter 13: Operator Overloading: Doing It Right'
p1294
tp1295
a(Vhttp://bit.ly/1JHVi2E
p1296
S'Chapter 13: Operator Overloading: Doing It Right'
p1297
tp1298
a(Vhttp://bit.ly/1QOyDQY
p1299
S'375'
p1300
tp1301
a(Vhttp://bit.ly/1QOyDQY
p1302
S'375'
p1303
tp1304
a(Vhttps://docs.python.org/3/reference/datamodel.html
p1305
S'Chapter 13: Operator Overloading: Doing It Right'
p1306
tp1307
a(Vhttp://bit.ly/1JHWP8W
p1308
S'Chapter 13: Operator Overloading: Doing It Right'
p1309
tp1310
a(Vhttp://bit.ly/1JHWP8W
p1311
S'Chapter 13: Operator Overloading: Doing It Right'
p1312
tp1313
a(Vhttps://github.com/fluentpython/example-code
p1314
S'381'
p1315
tp1316
a(Vhttps://www.python.org/dev/peps/pep-0465/
p1317
S'383'
p1318
tp1319
a(Vhttps://www.python.org/dev/peps/pep-0465/
p1320
S'383'
p1321
tp1322
a(Vhttps://github.com/fluentpython/example-code
p1323
S'Chapter 13: Operator Overloading: Doing It Right'
p1324
tp1325
a(Vhttp://bit.ly/1C11uL7
p1326
S'387'
p1327
tp1328
a(Vhttp://bit.ly/1C11uL7
p1329
S'387'
p1330
tp1331
a(Vhttps://docs.python.org/3/reference/datamodel.html
p1332
S'Chapter 13: Operator Overloading: Doing It Right'
p1333
tp1334
a(Vhttp://bit.ly/1C11zP5
p1335
S'Chapter 13: Operator Overloading: Doing It Right'
p1336
tp1337
a(Vhttp://bugs.python.org/issue4395
p1338
S'Chapter 13: Operator Overloading: Doing It Right'
p1339
tp1340
a(Vhttps://www.python.org/dev/peps/pep-0008/#imports
p1341
S'391'
p1342
tp1343
a(Vhttps://docs.python.org/3/reference/datamodel.html
p1344
S'Chapter 13: Operator Overloading: Doing It Right'
p1345
tp1346
a(Vhttp://bit.ly/1JHWP8W
p1347
S'Chapter 13: Operator Overloading: Doing It Right'
p1348
tp1349
a(Vhttp://bit.ly/1JHWP8W
p1350
S'Chapter 13: Operator Overloading: Doing It Right'
p1351
tp1352
a(Vhttp://bit.ly/1C12IWF
p1353
S'Chapter 13: Operator Overloading: Doing It Right'
p1354
tp1355
a(Vhttp://bit.ly/1FVhejw
p1356
S'Chapter 13: Operator Overloading: Doing It Right'
p1357
tp1358
a(Vhttp://bit.ly/1QrnuuD
p1359
S'Chapter 13: Operator Overloading: Doing It Right'
p1360
tp1361
a(Vhttp://bit.ly/1QrnuuD
p1362
S'Chapter 13: Operator Overloading: Doing It Right'
p1363
tp1364
a(Vhttp://www.gotw.ca/publications/c_family_interview.htm
p1365
S'Chapter 13: Operator Overloading: Doing It Right'
p1366
tp1367
a(Vhttp://www.gotw.ca/publications/c_family_interview.htm
p1368
S'Chapter 13: Operator Overloading: Doing It Right'
p1369
tp1370
a(Vhttp://bit.ly/1C12T4t
p1371
S'395'
p1372
tp1373
a(Vhttp://bit.ly/1C12T4t
p1374
S'395'
p1375
tp1376
a(Vhttp://www.call-cc.org/
p1377
S'Chapter 13: Operator Overloading: Doing It Right'
p1378
tp1379
a(Vhttp://www.paulgraham.com/icad.html
p1380
S'401'
p1381
tp1382
a(Vhttp://bit.ly/1C14QOi
p1383
S'407'
p1384
tp1385
a(Vhttps://hg.python.org/cpython/file/3.4/Lib/types.py
p1386
S'Chapter 14: Iterables, Iterators, and Generators'
p1387
tp1388
a(Vhttps://www.python.org/dev/peps/pep-0255/
p1389
S'413'
p1390
tp1391
a(Vhttp://bit.ly/1JIbIYO
p1392
S'Chapter 14: Iterables, Iterators, and Generators'
p1393
tp1394
a(Vhttp://bit.ly/1JIbIYO
p1395
S'Chapter 14: Iterables, Iterators, and Generators'
p1396
tp1397
a(Vhttp://bit.ly/1JItSti
p1398
S'Chapter 14: Iterables, Iterators, and Generators'
p1399
tp1400
a(Vhttp://bit.ly/1HGqqwh
p1401
S'Chapter 14: Iterables, Iterators, and Generators'
p1402
tp1403
a(Vhttp://bit.ly/py-itertools
p1404
S'431'
p1405
tp1406
a(Vhttp://bit.ly/py-itertools
p1407
S'431'
p1408
tp1409
a(Vhttp://bit.ly/1wpQv0i
p1410
S'Chapter 14: Iterables, Iterators, and Generators'
p1411
tp1412
a(Vhttp://bit.ly/1wpQv0i
p1413
S'Chapter 14: Iterables, Iterators, and Generators'
p1414
tp1415
a(Vhttp://bit.ly/1HGqw70
p1416
S'Chapter 14: Iterables, Iterators, and Generators'
p1417
tp1418
a(Vhttp://bit.ly/1HGqzzT
p1419
S'437'
p1420
tp1421
a(Vhttp://bit.ly/1MM5aXD
p1422
S'Chapter 14: Iterables, Iterators, and Generators'
p1423
tp1424
a(Vhttp://www.dabeaz.com/coroutines/Coroutines.pdf
p1425
S'439'
p1426
tp1427
a(Vhttp://catb.org/~esr/jargon/html/G/grok.html
p1428
S'439'
p1429
tp1430
a(Vhttps://www.python.org/dev/peps/pep-0342/
p1431
S'439'
p1432
tp1433
a(Vhttp://www.dabeaz.com/coroutines/
p1434
S'439'
p1435
tp1436
a(Vhttp://bit.ly/1MM5Xb5
p1437
S'Chapter 14: Iterables, Iterators, and Generators'
p1438
tp1439
a(Vhttps://www.python.org/dev/peps/pep-0255/
p1440
S'Chapter 14: Iterables, Iterators, and Generators'
p1441
tp1442
a(Vhttps://docs.python.org/3/library/itertools.html
p1443
S'Chapter 14: Iterables, Iterators, and Generators'
p1444
tp1445
a(Vhttp://bit.ly/1MM5YvA
p1446
S'Chapter 14: Iterables, Iterators, and Generators'
p1447
tp1448
a(Vhttp://bit.ly/1MM6d9R
p1449
S'Chapter 14: Iterables, Iterators, and Generators'
p1450
tp1451
a(Vhttp://journal.code4lib.org/articles/4893
p1452
S'441'
p1453
tp1454
a(Vhttp://journal.code4lib.org/articles/4893
p1455
S'441'
p1456
tp1457
a(Vhttps://www.python.org/dev/peps/pep-0255/
p1458
S'441'
p1459
tp1460
a(Vhttps://www.python.org/dev/peps/pep-0255/
p1461
S'441'
p1462
tp1463
a(Vhttp://www.dabeaz.com/coroutines/Coroutines.pdf
p1464
S'Chapter 14: Iterables, Iterators, and Generators'
p1465
tp1466
a(Vhttp://bit.ly/1MM6Sbm
p1467
S'443'
p1468
tp1469
a(Vhttp://bit.ly/1MM6Sbm
p1470
S'443'
p1471
tp1472
a(Vhttps://docs.python.org/3/library/types.html#types.GeneratorType
p1473
S'443'
p1474
tp1475
a(Vhttp://docs.python.org/dev/glossary.html#term-iterator
p1476
S'Chapter 14: Iterables, Iterators, and Generators'
p1477
tp1478
a(Vhttps://docs.python.org/3/glossary.html#term-iterator
p1479
S'Chapter 14: Iterables, Iterators, and Generators'
p1480
tp1481
a(Vhttps://docs.python.org/3/glossary.html#term-generator
p1482
S'Chapter 14: Iterables, Iterators, and Generators'
p1483
tp1484
a(Vhttp://pyvideo.org/video/1669/keynote-3
p1485
S'447'
p1486
tp1487
a(Vhttp://bit.ly/1MMa1YB
p1488
S'Chapter 15: Context Managers and else Blocks'
p1489
tp1490
a(Vhttp://bit.ly/1MMa1YB
p1491
S'Chapter 15: Context Managers and else Blocks'
p1492
tp1493
a(Vhttps://docs.python.org/3/glossary.html#term-eafp
p1494
S'449'
p1495
tp1496
a(Vhttps://docs.python.org/3/glossary.html#term-eafp
p1497
S'449'
p1498
tp1499
a(Vhttp://bit.ly/1MM7Sw6
p1500
S'Chapter 15: Context Managers and else Blocks'
p1501
tp1502
a(Vhttp://bit.ly/1MM82Uc
p1503
S'453'
p1504
tp1505
a(Vhttp://bit.ly/1MM89PC
p1506
S'Chapter 15: Context Managers and else Blocks'
p1507
tp1508
a(Vhttp://bit.ly/1MM89PC
p1509
S'Chapter 15: Context Managers and else Blocks'
p1510
tp1511
a(Vhttp://bit.ly/1MM8guy
p1512
S'Chapter 15: Context Managers and else Blocks'
p1513
tp1514
a(Vhttp://bit.ly/1MM8guy
p1515
S'Chapter 15: Context Managers and else Blocks'
p1516
tp1517
a(Vhttp://bit.ly/1MM8eTw
p1518
S'Chapter 15: Context Managers and else Blocks'
p1519
tp1520
a(Vhttp://bit.ly/1MM8imk
p1521
S'Chapter 15: Context Managers and else Blocks'
p1522
tp1523
a(Vhttp://bit.ly/1MM8imk
p1524
S'Chapter 15: Context Managers and else Blocks'
p1525
tp1526
a(Vhttp://bit.ly/1HGqZpJ
p1527
S'Chapter 15: Context Managers and else Blocks'
p1528
tp1529
a(Vhttp://bit.ly/1HGqZpJ
p1530
S'Chapter 15: Context Managers and else Blocks'
p1531
tp1532
a(Vhttp://bit.ly/1MM8AJJ
p1533
S'Chapter 15: Context Managers and else Blocks'
p1534
tp1535
a(Vhttp://bit.ly/1MM96aR
p1536
S'Chapter 15: Context Managers and else Blocks'
p1537
tp1538
a(Vhttp://bit.ly/1HGr6Sq
p1539
S'Chapter 15: Context Managers and else Blocks'
p1540
tp1541
a(Vhttp://bit.ly/1MM96aR
p1542
S'Chapter 15: Context Managers and else Blocks'
p1543
tp1544
a(Vhttp://bit.ly/1MM9pCm
p1545
S'459'
p1546
tp1547
a(Vhttp://bit.ly/1MMa1YB
p1548
S'459'
p1549
tp1550
a(Vhttp://bit.ly/1MMa2Mp
p1551
S'459'
p1552
tp1553
a(Vhttp://bit.ly/1MMa2Mp
p1554
S'459'
p1555
tp1556
a(Vhttp://shop.oreilly.com/product/9780596100469.do
p1557
S'459'
p1558
tp1559
a(Vhttp://bit.ly/1MMacTS
p1560
S'459'
p1561
tp1562
a(Vhttp://bit.ly/1MMab2e
p1563
S'459'
p1564
tp1565
a(Vhttp://bit.ly/1MMab2e
p1566
S'459'
p1567
tp1568
a(Vhttps://www.python.org/dev/peps/pep-0343/
p1569
S'459'
p1570
tp1571
a(Vhttp://bit.ly/1MM9pCm
p1572
S'Chapter 15: Context Managers and else Blocks'
p1573
tp1574
a(Vhttp://bit.ly/1MMagmB
p1575
S'Chapter 15: Context Managers and else Blocks'
p1576
tp1577
a(Vhttp://bit.ly/1MMakmm
p1578
S'Chapter 15: Context Managers and else Blocks'
p1579
tp1580
a(Vhttp://shop.oreilly.com/product/0636920027072.do
p1581
S'Chapter 15: Context Managers and else Blocks'
p1582
tp1583
a(Vhttp://shop.oreilly.com/product/0636920027072.do
p1584
S'Chapter 15: Context Managers and else Blocks'
p1585
tp1586
a(Vhttp://pyvideo.org/video/1669/keynote-3
p1587
S'Chapter 15: Context Managers and else Blocks'
p1588
tp1589
a(Vhttps://www.python.org/dev/peps/pep-0342/
p1590
S'Chapter 16: Coroutines'
p1591
tp1592
a(Vhttps://www.python.org/dev/peps/pep-0342/
p1593
S'Chapter 16: Coroutines'
p1594
tp1595
a(Vhttps://www.python.org/dev/peps/pep-0380/
p1596
S'Chapter 16: Coroutines'
p1597
tp1598
a(Vhttps://www.python.org/dev/peps/pep-0380/
p1599
S'Chapter 16: Coroutines'
p1600
tp1601
a(Vhttp://bit.ly/1MMc9zy
p1602
S'Chapter 16: Coroutines'
p1603
tp1604
a(Vhttp://bit.ly/1MMc9zy
p1605
S'Chapter 16: Coroutines'
p1606
tp1607
a(Vhttp://bit.ly/1MMcano
p1608
S'Chapter 16: Coroutines'
p1609
tp1610
a(Vhttp://bit.ly/1MMcuCx
p1611
S'Chapter 16: Coroutines'
p1612
tp1613
a(Vhttp://bit.ly/1MMcGBF
p1614
S'471'
p1615
tp1616
a(Vhttps://docs.python.org/3/reference/expressions.html#generator-iterator-methods
p1617
S'473'
p1618
tp1619
a(Vhttps://docs.python.org/3/reference/expressions.html#generator-iterator-methods
p1620
S'473'
p1621
tp1622
a(Vhttps://github.com/tecki/ipython-yf
p1623
S'477'
p1624
tp1625
a(Vhttp://bugs.python.org/issue22412
p1626
S'477'
p1627
tp1628
a(Vhttps://www.python.org/dev/peps/pep-0492/
p1629
S'477'
p1630
tp1631
a(Vhttps://www.python.org/dev/peps/pep-0492/
p1632
S'477'
p1633
tp1634
a(Vhttp://shop.oreilly.com/product/0636920027072.do
p1635
S'Chapter 16: Coroutines'
p1636
tp1637
a(Vhttp://bit.ly/1MMe1sc
p1638
S'Chapter 16: Coroutines'
p1639
tp1640
a(Vhttp://flupy.org/resources/yield-from.pdf
p1641
S'479'
p1642
tp1643
a(Vhttp://bit.ly/1HGrnVq
p1644
S'Chapter 16: Coroutines'
p1645
tp1646
a(Vhttp://bit.ly/1JIofLL
p1647
S'Chapter 16: Coroutines'
p1648
tp1649
a(Vhttp://bit.ly/1JIofLL
p1650
S'Chapter 16: Coroutines'
p1651
tp1652
a(Vhttp://bit.ly/1JIopTu
p1653
S'483'
p1654
tp1655
a(Vhttps://www.python.org/dev/peps/pep-0380/#proposal
p1656
S'483'
p1657
tp1658
a(Vhttp://bit.ly/1JIoXJ1
p1659
S'Chapter 16: Coroutines'
p1660
tp1661
a(Vhttp://bit.ly/1JIopTu
p1662
S'Chapter 16: Coroutines'
p1663
tp1664
a(Vhttps://www.python.org/dev/peps/pep-0342/
p1665
S'489'
p1666
tp1667
a(Vhttp://bit.ly/1HGs4Oz
p1668
S'Chapter 16: Coroutines'
p1669
tp1670
a(Vhttp://bit.ly/1HGs3Kl
p1671
S'Chapter 16: Coroutines'
p1672
tp1673
a(Vhttp://bit.ly/1JIqjn6
p1674
S'Chapter 16: Coroutines'
p1675
tp1676
a(Vhttp://www.dabeaz.com/coroutines/
p1677
S'Chapter 16: Coroutines'
p1678
tp1679
a(Vhttps://www.python.org/dev/peps/pep-0342/
p1680
S'499'
p1681
tp1682
a(Vhttps://www.python.org/dev/peps/pep-0342/
p1683
S'499'
p1684
tp1685
a(Vhttp://shop.oreilly.com/product/0636920027072.do
p1686
S'Chapter 16: Coroutines'
p1687
tp1688
a(Vhttp://www.dabeaz.com/generators/
p1689
S'Chapter 16: Coroutines'
p1690
tp1691
a(Vhttp://www.dabeaz.com/generators/
p1692
S'Chapter 16: Coroutines'
p1693
tp1694
a(Vhttp://www.dabeaz.com/coroutines/
p1695
S'Chapter 16: Coroutines'
p1696
tp1697
a(Vhttp://www.dabeaz.com/coroutines/
p1698
S'Chapter 16: Coroutines'
p1699
tp1700
a(Vhttp://pyvideo.org/video/213
p1701
S'Chapter 16: Coroutines'
p1702
tp1703
a(Vhttp://pyvideo.org/video/215
p1704
S'Chapter 16: Coroutines'
p1705
tp1706
a(Vhttp://pyvideo.org/video/214
p1707
S'Chapter 16: Coroutines'
p1708
tp1709
a(Vhttp://www.dabeaz.com/finalgenerator/
p1710
S'Chapter 16: Coroutines'
p1711
tp1712
a(Vhttp://bit.ly/1HGsFQ0
p1713
S'Chapter 16: Coroutines'
p1714
tp1715
a(Vhttp://bit.ly/1HGsFQ0
p1716
S'Chapter 16: Coroutines'
p1717
tp1718
a(Vhttp://bit.ly/1HGsFzA
p1719
S'Chapter 16: Coroutines'
p1720
tp1721
a(Vhttp://bit.ly/1HGsFzA
p1722
S'Chapter 16: Coroutines'
p1723
tp1724
a(Vhttps://code.activestate.com/recipes/
p1725
S'Chapter 16: Coroutines'
p1726
tp1727
a(Vhttp://micropython.org
p1728
S'Chapter 16: Coroutines'
p1729
tp1730
a(Vhttp://micropython.org
p1731
S'Chapter 16: Coroutines'
p1732
tp1733
a(Vhttp://bit.ly/1JIqGxW
p1734
S'Chapter 16: Coroutines'
p1735
tp1736
a(Vhttp://flupy.org/resources/yield-from.pdf
p1737
S'Chapter 16: Coroutines'
p1738
tp1739
a(Vhttp://bit.ly/1JIqJtu
p1740
S'Chapter 16: Coroutines'
p1741
tp1742
a(Vhttp://www.effectivepython.com
p1743
S'Chapter 16: Coroutines'
p1744
tp1745
a(Vhttp://bit.ly/1JIqNcZ
p1746
S'Chapter 16: Coroutines'
p1747
tp1748
a(Vhttp://bit.ly/1JIqNcZ
p1749
S'Chapter 16: Coroutines'
p1750
tp1751
a(Vhttp://bit.ly/1HGsKDw
p1752
S'Chapter 16: Coroutines'
p1753
tp1754
a(Vhttps://github.com/bslatkin/effectivepython
p1755
S'Chapter 16: Coroutines'
p1756
tp1757
a(Vhttp://bit.ly/1JIqO0l
p1758
S'Chapter 16: Coroutines'
p1759
tp1760
a(Vhttp://bit.ly/1HGsO6j
p1761
S'501'
p1762
tp1763
a(Vhttp://bit.ly/coro_life
p1764
S'501'
p1765
tp1766
a(Vhttp://bit.ly/1JIqSxf
p1767
S'501'
p1768
tp1769
a(Vhttp://bit.ly/1JIqQ8x
p1770
S'501'
p1771
tp1772
a(Vhttp://bit.ly/1JIqT44
p1773
S'501'
p1774
tp1775
a(Vhttp://bit.ly/1JIqT44
p1776
S'501'
p1777
tp1778
a(Vhttp://bit.ly/1JIqRcv
p1779
S'501'
p1780
tp1781
a(Vhttp://bit.ly/1JIqRcv
p1782
S'501'
p1783
tp1784
a(Vhttps://www.python.org/dev/peps/pep-0492/
p1785
S'501'
p1786
tp1787
a(Vhttp://bit.ly/1JIqXB1
p1788
S'501'
p1789
tp1790
a(Vhttp://bit.ly/1JIqWgz
p1791
S'501'
p1792
tp1793
a(Vhttp://bit.ly/1JIqWgz
p1794
S'501'
p1795
tp1796
a(Vhttps://simpy.readthedocs.org/en/latest/
p1797
S'Chapter 16: Coroutines'
p1798
tp1799
a(Vhttps://simpy.readthedocs.org/en/latest/
p1800
S'Chapter 16: Coroutines'
p1801
tp1802
a(Vhttp://lambda-the-ultimate.org/node/4295
p1803
S'503'
p1804
tp1805
a(Vhttp://lambda-the-ultimate.org/
p1806
S'503'
p1807
tp1808
a(Vhttp://bit.ly/1JIrIdh
p1809
S'503'
p1810
tp1811
a(Vhttp://mzl.la/1JIr8fM
p1812
S'503'
p1813
tp1814
a(Vhttp://php.net/manual/en/reserved.keywords.php
p1815
S'503'
p1816
tp1817
a(Vhttp://en.cppreference.com/w/cpp/keyword
p1818
S'503'
p1819
tp1820
a(Vhttp://ibm.co/1JIr7bJ
p1821
S'503'
p1822
tp1823
a(Vhttp://bit.ly/1JIrB1w
p1824
S'503'
p1825
tp1826
a(Vhttp://bit.ly/1JIrAL1
p1827
S'503'
p1828
tp1829
a(Vhttps://www.python.org/dev/peps/pep-0492/
p1830
S'Chapter 16: Coroutines'
p1831
tp1832
a(Vhttps://www.python.org/dev/peps/pep-0492/
p1833
S'Chapter 16: Coroutines'
p1834
tp1835
a(Vhttp://bit.ly/1JIrNgY
p1836
S'Chapter 16: Coroutines'
p1837
tp1838
a(Vhttp://bit.ly/1JIrPp9
p1839
S'Chapter 16: Coroutines'
p1840
tp1841
a(Vhttp://bit.ly/1JIrYZQ
p1842
S'505'
p1843
tp1844
a(Vhttps://pypi.python.org/pypi/futures/
p1845
S'505'
p1846
tp1847
a(Vhttps://www.youtube.com/watch?v=A9e9Cy1UkME
p1848
S'Chapter 17: Concurrency with Futures'
p1849
tp1850
a(Vhttp://bit.ly/1JIsg2L
p1851
S'507'
p1852
tp1853
a(Vhttps://github.com/fluentpython/example-code
p1854
S'507'
p1855
tp1856
a(Vhttps://github.com/fluentpython/example-code
p1857
S'507'
p1858
tp1859
a(Vhttp://1.usa.gov/1JIsmHJ
p1860
S'509'
p1861
tp1862
a(Vhttps://pypi.python.org/pypi/requests
p1863
S'509'
p1864
tp1865
a(Vhttp://bit.ly/1JIsEOW
p1866
S'Chapter 17: Concurrency with Futures'
p1867
tp1868
a(Vhttp://bit.ly/1JIsEOW
p1869
S'Chapter 17: Concurrency with Futures'
p1870
tp1871
a(Vhttp://www.dabeaz.com/finalgenerator/
p1872
S'515'
p1873
tp1874
a(Vhttps://docs.python.org/3/library/concurrent.futures.html
p1875
S'515'
p1876
tp1877
a(Vhttp://pypy.org/
p1878
S'517'
p1879
tp1880
a(Vhttp://bit.ly/1JIsg2L
p1881
S'521'
p1882
tp1883
a(Vhttp://bit.ly/1JItSti
p1884
S'521'
p1885
tp1886
a(Vhttps://github.com/noamraph/tqdm
p1887
S'521'
p1888
tp1889
a(Vhttps://www.youtube.com/watch?v=M8Z65tAl5l4
p1890
S'521'
p1891
tp1892
a(Vhttps://www.youtube.com/watch?v=M8Z65tAl5l4
p1893
S'521'
p1894
tp1895
a(Vhttps://github.com/noamraph/tqdm/blob/master/README.md
p1896
S'Chapter 17: Concurrency with Futures'
p1897
tp1898
a(Vhttp://bit.ly/1JIsEOW
p1899
S'Chapter 17: Concurrency with Futures'
p1900
tp1901
a(Vhttp://bit.ly/1JIufV1
p1902
S'Chapter 17: Concurrency with Futures'
p1903
tp1904
a(Vhttp://bit.ly/1JIsg2L
p1905
S'523'
p1906
tp1907
a(Vhttp://bit.ly/1JIsg2L
p1908
S'523'
p1909
tp1910
a(Vhttp://www.cloudflare.com/
p1911
S'523'
p1912
tp1913
a(Vhttp://bit.ly/1JIsg2L
p1914
S'523'
p1915
tp1916
a(Vhttp://bit.ly/1JIsg2L
p1917
S'Chapter 17: Concurrency with Futures'
p1918
tp1919
a(Vhttp://bit.ly/1JIsg2L
p1920
S'Chapter 17: Concurrency with Futures'
p1921
tp1922
a(Vhttps://github.com/fluentpython/example-code
p1923
S'Chapter 17: Concurrency with Futures'
p1924
tp1925
a(Vhttps://github.com/fluentpython/example-code
p1926
S'Chapter 17: Concurrency with Futures'
p1927
tp1928
a(Vhttps://docs.python.org/3/library/threading.html
p1929
S'Chapter 17: Concurrency with Futures'
p1930
tp1931
a(Vhttps://docs.python.org/3/library/queue.html
p1932
S'Chapter 17: Concurrency with Futures'
p1933
tp1934
a(Vhttps://docs.python.org/3/library/multiprocessing.html
p1935
S'Chapter 17: Concurrency with Futures'
p1936
tp1937
a(Vhttp://bit.ly/1JIuZJy
p1938
S'531'
p1939
tp1940
a(Vhttps://www.python.org/dev/peps/pep-3148/
p1941
S'531'
p1942
tp1943
a(Vhttp://bit.ly/1JIv1kA
p1944
S'531'
p1945
tp1946
a(Vhttp://shop.oreilly.com/product/0636920027072.do
p1947
S'Chapter 17: Concurrency with Futures'
p1948
tp1949
a(Vhttp://www.effectivepython.com/
p1950
S'Chapter 17: Concurrency with Futures'
p1951
tp1952
a(Vhttp://shop.oreilly.com/product/0636920028963.do
p1953
S'Chapter 17: Concurrency with Futures'
p1954
tp1955
a(Vhttp://bit.ly/1HGtb0F
p1956
S'Chapter 17: Concurrency with Futures'
p1957
tp1958
a(Vhttp://bit.ly/1HGtcBF
p1959
S'Chapter 17: Concurrency with Futures'
p1960
tp1961
a(Vhttp://bit.ly/1HGtcBF
p1962
S'Chapter 17: Concurrency with Futures'
p1963
tp1964
a(Vhttp://bit.ly/1JIvgwd
p1965
S'Chapter 17: Concurrency with Futures'
p1966
tp1967
a(Vhttp://www.dabeaz.com/GIL/
p1968
S'Chapter 17: Concurrency with Futures'
p1969
tp1970
a(Vhttp://bit.ly/1HGtCrK
p1971
S'Chapter 17: Concurrency with Futures'
p1972
tp1973
a(Vhttp://bugs.python.org/issue7946#msg223110
p1974
S'Chapter 17: Concurrency with Futures'
p1975
tp1976
a(Vhttp://www.dabeaz.com/coroutines/
p1977
S'533'
p1978
tp1979
a(Vhttps://www.python.org/dev/peps/pep-0371/
p1980
S'533'
p1981
tp1982
a(Vhttps://www.python.org/dev/peps/pep-0371/
p1983
S'533'
p1984
tp1985
a(Vhttp://bit.ly/multi-docs
p1986
S'533'
p1987
tp1988
a(Vhttps://spark.apache.org
p1989
S'533'
p1990
tp1991
a(Vhttps://spark.apache.org/examples.html
p1992
S'533'
p1993
tp1994
a(Vhttps://spark.apache.org/examples.html
p1995
S'533'
p1996
tp1997
a(Vhttps://pypi.python.org/pypi/lelo
p1998
S'533'
p1999
tp2000
a(Vhttp://bit.ly/1HGtF6Q
p2001
S'533'
p2002
tp2003
a(Vhttp://bit.ly/1HGtGaR
p2004
S'533'
p2005
tp2006
a(Vhttp://bit.ly/1HGtGaR
p2007
S'533'
p2008
tp2009
a(Vhttp://bit.ly/1OwVTUf
p2010
S'537'
p2011
tp2012
a(Vhttp://bit.ly/1HGtMiO
p2013
S'Chapter 18: Concurrency with asyncio'
p2014
tp2015
a(Vhttps://pypi.python.org/pypi/asyncio
p2016
S'Chapter 18: Concurrency with asyncio'
p2017
tp2018
a(Vhttps://pypi.python.org/pypi/asyncio
p2019
S'Chapter 18: Concurrency with asyncio'
p2020
tp2021
a(Vhttp://trollius.readthedocs.org
p2022
S'Chapter 18: Concurrency with asyncio'
p2023
tp2024
a(Vhttp://bit.ly/1Ox3vWA
p2025
S'539'
p2026
tp2027
a(Vhttp://bit.ly/1Ox3vWA
p2028
S'539'
p2029
tp2030
a(Vhttps://www.python.org/dev/peps/pep-3156/
p2031
S'545'
p2032
tp2033
a(Vhttps://www.python.org/dev/peps/pep-3156/
p2034
S'545'
p2035
tp2036
a(Vhttp://bit.ly/1JIwJmc
p2037
S'547'
p2038
tp2039
a(Vhttps://pypi.python.org/pypi/asyncio
p2040
S'547'
p2041
tp2042
a(Vhttps://docs.python.org/3/library/asyncio-task.html
p2043
S'547'
p2044
tp2045
a(Vhttps://docs.python.org/3/library/asyncio-task.html
p2046
S'547'
p2047
tp2048
a(Vhttps://pypi.python.org/pypi/Quamash/
p2049
S'Chapter 18: Concurrency with asyncio'
p2050
tp2051
a(Vhttp://bit.ly/1JIwZS2
p2052
S'Chapter 18: Concurrency with asyncio'
p2053
tp2054
a(Vhttp://bit.ly/1JIwZS2
p2055
S'Chapter 18: Concurrency with asyncio'
p2056
tp2057
a(Vhttps://www.youtube.com/watch?v=M-sc73Y-zQA
p2058
S'Chapter 18: Concurrency with asyncio'
p2059
tp2060
a(Vhttp://bit.ly/1HGtQzc
p2061
S'Chapter 18: Concurrency with asyncio'
p2062
tp2063
a(Vhttp://bit.ly/1HGtQzc
p2064
S'Chapter 18: Concurrency with asyncio'
p2065
tp2066
a(Vhttp://bit.ly/1JIsg2L
p2067
S'555'
p2068
tp2069
a(Vhttp://bit.ly/1JIsg2L
p2070
S'555'
p2071
tp2072
a(Vhttp://bit.ly/1f6ChKk
p2073
S'555'
p2074
tp2075
a(Vhttp://bit.ly/1JItSti
p2076
S'555'
p2077
tp2078
a(Vhttp://bit.ly/1f6Csp8
p2079
S'557'
p2080
tp2081
a(Vhttps://www.python.org/dev/peps/pep-3134/
p2082
S'557'
p2083
tp2084
a(Vhttp://bit.ly/1f6CBZx
p2085
S'Chapter 18: Concurrency with asyncio'
p2086
tp2087
a(Vhttp://bit.ly/1f6CBZx
p2088
S'Chapter 18: Concurrency with asyncio'
p2089
tp2090
a(Vhttp://survivejs.com/common_problems/pyramid.html
p2091
S'Chapter 18: Concurrency with asyncio'
p2092
tp2093
a(Vhttp://survivejs.com/common_problems/pyramid.html
p2094
S'Chapter 18: Concurrency with asyncio'
p2095
tp2096
a(Vhttp://bit.ly/1f6CY6B
p2097
S'567'
p2098
tp2099
a(Vhttps://github.com/fluentpython/example-code
p2100
S'Chapter 18: Concurrency with asyncio'
p2101
tp2102
a(Vhttps://docs.python.org/3/library/asyncio-stream.html
p2103
S'573'
p2104
tp2105
a(Vhttps://docs.python.org/3/library/asyncio-protocol.html
p2106
S'573'
p2107
tp2108
a(Vhttps://docs.python.org/3/library/asyncio-protocol.html
p2109
S'573'
p2110
tp2111
a(Vhttp://bit.ly/1f6D9i6
p2112
S'573'
p2113
tp2114
a(Vhttp://bit.ly/1HGu5dz
p2115
S'Chapter 18: Concurrency with asyncio'
p2116
tp2117
a(Vhttps://aiopg.readthedocs.org/en/stable/
p2118
S'Chapter 18: Concurrency with asyncio'
p2119
tp2120
a(Vhttp://bit.ly/1JItSti
p2121
S'577'
p2122
tp2123
a(Vhttp://bit.ly/1f6DGRi
p2124
S'579'
p2125
tp2126
a(Vhttp://bit.ly/1HGuPPE
p2127
S'579'
p2128
tp2129
a(Vhttps://www.python.org/dev/peps/pep-3156/
p2130
S'579'
p2131
tp2132
a(Vhttp://bit.ly/1HGuuwq
p2133
S'579'
p2134
tp2135
a(Vhttp://bit.ly/1HGurAX
p2136
S'579'
p2137
tp2138
a(Vhttps://docs.python.org/3/library/asyncio-dev.html
p2139
S'579'
p2140
tp2141
a(Vhttp://bit.ly/1f6DIZo
p2142
S'579'
p2143
tp2144
a(Vhttp://bit.ly/1HGuRY2
p2145
S'579'
p2146
tp2147
a(Vhttp://bit.ly/1HGub4K
p2148
S'579'
p2149
tp2150
a(Vhttp://bit.ly/1f6DJwj
p2151
S'579'
p2152
tp2153
a(Vhttp://bit.ly/1f6DJwj
p2154
S'579'
p2155
tp2156
a(Vhttp://bit.ly/1HGueh0
p2157
S'Chapter 18: Concurrency with asyncio'
p2158
tp2159
a(Vhttp://bit.ly/1HGueh0
p2160
S'Chapter 18: Concurrency with asyncio'
p2161
tp2162
a(Vhttp://bit.ly/1HGudd0
p2163
S'Chapter 18: Concurrency with asyncio'
p2164
tp2165
a(Vhttp://bit.ly/1HGuexy
p2166
S'Chapter 18: Concurrency with asyncio'
p2167
tp2168
a(Vhttp://bit.ly/1HGuf4D
p2169
S'Chapter 18: Concurrency with asyncio'
p2170
tp2171
a(Vhttp://bit.ly/1HGufBq
p2172
S'Chapter 18: Concurrency with asyncio'
p2173
tp2174
a(Vhttp://bit.ly/1HGuoos
p2175
S'Chapter 18: Concurrency with asyncio'
p2176
tp2177
a(Vhttp://bit.ly/1HGulck
p2178
S'Chapter 18: Concurrency with asyncio'
p2179
tp2180
a(Vhttp://trollius.readthedocs.org
p2181
S'Chapter 18: Concurrency with asyncio'
p2182
tp2183
a(Vhttp://bit.ly/1HGumwZ
p2184
S'Chapter 18: Concurrency with asyncio'
p2185
tp2186
a(Vhttp://asyncio.org
p2187
S'Chapter 18: Concurrency with asyncio'
p2188
tp2189
a(Vhttps://github.com/aio-libs
p2190
S'Chapter 18: Concurrency with asyncio'
p2191
tp2192
a(Vhttp://aiohttp.readthedocs.org/en/
p2193
S'Chapter 18: Concurrency with asyncio'
p2194
tp2195
a(Vhttp://vaurien.readthedocs.org/en/1.8/
p2196
S'Chapter 18: Concurrency with asyncio'
p2197
tp2198
a(Vhttps://mozilla-services.github.io/
p2199
S'Chapter 18: Concurrency with asyncio'
p2200
tp2201
a(Vhttp://bit.ly/1xNcNHZ
p2202
S'Chapter 18: Concurrency with asyncio'
p2203
tp2204
a(Vhttp://bit.ly/1HGuUTy
p2205
S'581'
p2206
tp2207
a(Vhttp://tornado.readthedocs.org/en/latest/asyncio.html
p2208
S'581'
p2209
tp2210
a(Vhttps://pypi.python.org/pypi/Quamash/
p2211
S'581'
p2212
tp2213
a(Vhttp://autobahn.ws/python/
p2214
S'581'
p2215
tp2216
a(Vhttp://aaugustin.github.io/websockets/
p2217
S'581'
p2218
tp2219
a(Vhttp://aaugustin.github.io/websockets/
p2220
S'581'
p2221
tp2222
a(Vhttp://bit.ly/1HGuVGY
p2223
S'581'
p2224
tp2225
a(Vhttp://bit.ly/1f6E2qT
p2226
S'Chapter 18: Concurrency with asyncio'
p2227
tp2228
a(Vhttp://bit.ly/1HGuXPa
p2229
S'Chapter 18: Concurrency with asyncio'
p2230
tp2231
a(Vhttp://shop.oreilly.com/product/9780596100469.do
p2232
S'585'
p2233
tp2234
a(Vhttp://bit.ly/1TxUXBP
p2235
S'Chapter 19: Dynamic Attributes and Properties'
p2236
tp2237
a(Vhttp://www.oreilly.com/pub/sc/osconfeed
p2238
S'Chapter 19: Dynamic Attributes and Properties'
p2239
tp2240
a(Vhttp://bit.ly/1TxUXBP
p2241
S'Chapter 19: Dynamic Attributes and Properties'
p2242
tp2243
a(Vhttps://pypi.python.org/pypi/attrdict
p2244
S'Chapter 19: Dynamic Attributes and Properties'
p2245
tp2246
a(Vhttps://pypi.python.org/pypi/addict
p2247
S'Chapter 19: Dynamic Attributes and Properties'
p2248
tp2249
a(Vhttps://docs.python.org/3/library/shelve.html
p2250
S'595'
p2251
tp2252
a(Vhttps://docs.python.org/3/library/dbm.html
p2253
S'595'
p2254
tp2255
a(Vhttps://docs.python.org/3/library/pickle.html
p2256
S'595'
p2257
tp2258
a(Vhttp://bit.ly/1cPM8T3
p2259
S'597'
p2260
tp2261
a(Vhttp://bit.ly/1cPLZzd
p2262
S'597'
p2263
tp2264
a(Vhttp://bit.ly/1cPM2uJ
p2265
S'597'
p2266
tp2267
a(Vhttp://bit.ly/1cPM1qG
p2268
S'597'
p2269
tp2270
a(Vhttp://bit.ly/1cPM4Ti
p2271
S'597'
p2272
tp2273
a(Vhttp://bit.ly/1cPMnNZ
p2274
S'599'
p2275
tp2276
a(Vhttps://github.com/fluentpython/example-code
p2277
S'599'
p2278
tp2279
a(Vhttps://github.com/fluentpython/example-code
p2280
S'599'
p2281
tp2282
a(Vhttp://on.wsj.com/1ECl8Dl
p2283
S'605'
p2284
tp2285
a(Vhttp://shop.oreilly.com/product/0636920027072.do
p2286
S'Chapter 19: Dynamic Attributes and Properties'
p2287
tp2288
a(Vhttp://shop.oreilly.com/product/0636920027072.do
p2289
S'Chapter 19: Dynamic Attributes and Properties'
p2290
tp2291
a(Vhttp://bit.ly/1HGvLDV
p2292
S'Chapter 19: Dynamic Attributes and Properties'
p2293
tp2294
a(Vhttps://docs.python.org/3/library/functions.html#hasattr
p2295
S'617'
p2296
tp2297
a(Vhttp://bit.ly/1cPO3qP
p2298
S'617'
p2299
tp2300
a(Vhttp://bit.ly/1cPOrpc
p2301
S'619'
p2302
tp2303
a(Vhttp://bit.ly/1cPOlxV
p2304
S'619'
p2305
tp2306
a(Vhttp://bit.ly/1cPO3qP
p2307
S'619'
p2308
tp2309
a(Vhttp://bit.ly/1cPO3qP
p2310
S'619'
p2311
tp2312
a(Vhttp://bit.ly/1cPOodb
p2313
S'619'
p2314
tp2315
a(Vhttp://bit.ly/1cPOodb
p2316
S'619'
p2317
tp2318
a(Vhttp://shop.oreilly.com/product/0636920027072.do
p2319
S'619'
p2320
tp2321
a(Vhttp://shop.oreilly.com/product/9780596100469.do
p2322
S'Chapter 19: Dynamic Attributes and Properties'
p2323
tp2324
a(Vhttp://bit.ly/1HGvZuA
p2325
S'Chapter 19: Dynamic Attributes and Properties'
p2326
tp2327
a(Vhttp://bit.ly/1HGvNvk
p2328
S'Chapter 19: Dynamic Attributes and Properties'
p2329
tp2330
a(Vhttp://bit.ly/1HGvNvk
p2331
S'Chapter 19: Dynamic Attributes and Properties'
p2332
tp2333
a(Vhttp://bit.ly/1cPOMIE
p2334
S'621'
p2335
tp2336
a(Vhttp://www.pingo.io/docs/
p2337
S'621'
p2338
tp2339
a(Vhttp://ipython.org/notebook.html
p2340
S'621'
p2341
tp2342
a(Vhttp://ubm.io/1cPP4PN
p2343
S'Chapter 19: Dynamic Attributes and Properties'
p2344
tp2345
a(Vhttp://ubm.io/1cPP4PN
p2346
S'Chapter 19: Dynamic Attributes and Properties'
p2347
tp2348
a(Vhttp://bit.ly/1HGvYH7
p2349
S'Chapter 19: Dynamic Attributes and Properties'
p2350
tp2351
a(Vhttp://bit.ly/1HGvYH7
p2352
S'Chapter 19: Dynamic Attributes and Properties'
p2353
tp2354
a(Vhttps://docs.python.org/3/howto/descriptor.html
p2355
S'625'
p2356
tp2357
a(Vhttp://bit.ly/1GsZwss
p2358
S'651'
p2359
tp2360
a(Vhttp://bit.ly/1HGwlS3
p2361
S'651'
p2362
tp2363
a(Vhttp://bit.ly/1HGwnsV
p2364
S'651'
p2365
tp2366
a(Vhttp://bit.ly/1HGwoxa
p2367
S'Chapter 20: Attribute Descriptors'
p2368
tp2369
a(Vhttp://bit.ly/1HGwp46
p2370
S'Chapter 20: Attribute Descriptors'
p2371
tp2372
a(Vhttp://bit.ly/1HGwvIZ
p2373
S'Chapter 20: Attribute Descriptors'
p2374
tp2375
a(Vhttp://bit.ly/1HGwvIZ
p2376
S'Chapter 20: Attribute Descriptors'
p2377
tp2378
a(Vhttp://bit.ly/1cPSaDh
p2379
S'653'
p2380
tp2381
a(Vhttp://bit.ly/1CAyiQY
p2382
S'653'
p2383
tp2384
a(Vhttp://bit.ly/1CAyiQY
p2385
S'653'
p2386
tp2387
a(Vhttp://bit.ly/1e8iABS
p2388
S'655'
p2389
tp2390
a(Vhttp://bit.ly/1HGwxRl
p2391
S'Chapter 21: Class Metaprogramming'
p2392
tp2393
a(Vhttp://bit.ly/1HGwAfW
p2394
S'659'
p2395
tp2396
a(Vhttp://bit.ly/1HGwAfW
p2397
S'659'
p2398
tp2399
a(Vhttp://bit.ly/1HGwxRl
p2400
S'659'
p2401
tp2402
a(Vhttp://bit.ly/1cPOodb
p2403
S'677'
p2404
tp2405
a(Vhttp://www.python.org/dev/peps/pep-3155
p2406
S'677'
p2407
tp2408
a(Vhttp://bit.ly/1HGwGnI
p2409
S'679'
p2410
tp2411
a(Vhttp://bit.ly/1HGwGnI
p2412
S'679'
p2413
tp2414
a(Vhttps://docs.python.org/3/library/functions.html#type
p2415
S'679'
p2416
tp2417
a(Vhttp://bit.ly/1cPOodb
p2418
S'679'
p2419
tp2420
a(Vhttp://bit.ly/1cPOodb
p2421
S'679'
p2422
tp2423
a(Vhttp://bit.ly/1HGwF3b
p2424
S'679'
p2425
tp2426
a(Vhttp://amzn.to/1HGwKDO
p2427
S'Chapter 21: Class Metaprogramming'
p2428
tp2429
a(Vhttp://bit.ly/1HGwIvW
p2430
S'Chapter 21: Class Metaprogramming'
p2431
tp2432
a(Vhttp://bit.ly/1HGwJ2Y
p2433
S'Chapter 21: Class Metaprogramming'
p2434
tp2435
a(Vhttp://bit.ly/1HGwMvx
p2436
S'Chapter 21: Class Metaprogramming'
p2437
tp2438
a(Vhttp://bit.ly/1HGwMvx
p2439
S'Chapter 21: Class Metaprogramming'
p2440
tp2441
a(Vhttps://www.python.org/dev/peps/pep-3115/
p2442
S'Chapter 21: Class Metaprogramming'
p2443
tp2444
a(Vhttp://bit.ly/1HGwN2D
p2445
S'Chapter 21: Class Metaprogramming'
p2446
tp2447
a(Vhttp://bit.ly/1HGwN2D
p2448
S'Chapter 21: Class Metaprogramming'
p2449
tp2450
a(Vhttps://www.python.org/dev/peps/pep-0487/
p2451
S'Chapter 21: Class Metaprogramming'
p2452
tp2453
a(Vhttps://www.python.org/dev/peps/pep-0487/
p2454
S'Chapter 21: Class Metaprogramming'
p2455
tp2456
a(Vhttps://github.com/lihaoyi/macropy
p2457
S'Chapter 21: Class Metaprogramming'
p2458
tp2459
a(Vhttps://www.eecs.berkeley.edu/~bh/ss-toc2.html
p2460
S'681'
p2461
tp2462
a(Vhttps://groups.google.com/forum/#!topic/python-tulip/Y4bhLNbKs74
p2463
S'683'
p2464
tp2465
a(Vhttps://groups.google.com/forum/#!topic/python-tulip/Y4bhLNbKs74
p2466
S'683'
p2467
tp2468
a(Vhttps://docs.python.org/3/library/asyncio-eventloop.html#executor
p2469
S'683'
p2470
tp2471
a(Vhttp://www.oreilly.com/catalog/errata.csp?isbn=0636920032519
p2472
S'|  Afterword'
p2473
tp2474
a(Vhttps://www.youtube.com/watch?v=x-kB2o8sd5c
p2475
S'|  Afterword'
p2476
tp2477
a(Vhttps://www.youtube.com/watch?v=x-kB2o8sd5c
p2478
S'|  Afterword'
p2479
tp2480
a(Vhttps://www.youtube.com/watch?v=OSGv2VnC0go
p2481
S'|  Afterword'
p2482
tp2483
a(Vhttps://www.youtube.com/watch?v=OSGv2VnC0go
p2484
S'|  Afterword'
p2485
tp2486
a(Vhttp://bit.ly/1e8pV4h
p2487
S'|  Afterword'
p2488
tp2489
a(Vhttps://pypi.python.org/pypi/pep8/
p2490
S'|  Afterword'
p2491
tp2492
a(Vhttps://pypi.python.org/pypi/flake8
p2493
S'685'
p2494
tp2495
a(Vhttps://pypi.python.org/pypi/pyflakes
p2496
S'685'
p2497
tp2498
a(Vhttps://pypi.python.org/pypi/mccabe
p2499
S'685'
p2500
tp2501
a(Vhttps://google-styleguide.googlecode.com/svn/trunk/pyguide.html
p2502
S'685'
p2503
tp2504
a(Vhttp://www.pocoo.org/internal/styleguide/
p2505
S'685'
p2506
tp2507
a(Vhttp://docs.python-guide.org/en/latest/
p2508
S'685'
p2509
tp2510
a(Vhttp://bit.ly/1e8r8sj
p2511
S'685'
p2512
tp2513
a(Vhttp://meyerweb.com/eric/tools/s5/
p2514
S'685'
p2515
tp2516
a(Vhttp://bit.ly/1e8r4ss
p2517
S'685'
p2518
tp2519
a(Vhttp://blog.startifact.com/posts/older/what-is-pythonic.html
p2520
S'685'
p2521
tp2522
a(Vhttp://bit.ly/1e8raAA
p2523
S'685'
p2524
tp2525
a(Vhttp://bit.ly/1e8reQP
p2526
S'685'
p2527
tp2528
a(Vhttp://bit.ly/1e8reQP
p2529
S'685'
p2530
tp2531
a(Vhttps://www.python.org/dev/peps/pep-3099/
p2532
S'685'
p2533
tp2534
a(Vhttps://www.python.org/doc/essays/
p2535
S'685'
p2536
tp2537
a(Vhttp://bit.ly/1e8s1Bd
p2538
S'687'
p2539
tp2540
a(Vhttps://github.com/fluentpython/isis2json
p2541
S'691'
p2542
tp2543
a(Vhttps://github.com/fluentpython/isis2json
p2544
S'691'
p2545
tp2546
a(Vhttps://docs.python.org/3/glossary.html
p2547
S'715'
p2548
tp2549
a(Vhttp://docs.python.org/library/functions.html
p2550
S'to identify an entry in the Unicode charac\xe2\x80\x90'
p2551
tp2552
a(Vhttp://docs.python.org/library/functions.html
p2553
S'to identify an entry in the Unicode charac\xe2\x80\x90'
p2554
tp2555
a(Vhttps://pypi.python.org/pypi
p2556
S'to identify an entry in the Unicode charac\xe2\x80\x90'
p2557
tp2558
a(Vhttps://pypi.python.org/pypi
p2559
S'to identify an entry in the Unicode charac\xe2\x80\x90'
p2560
tp2561
a(Vhttps://cheeseshop.python.org
p2562
S'to identify an entry in the Unicode charac\xe2\x80\x90'
p2563
tp2564
a(Vhttps://cheeseshop.python.org
p2565
S'to identify an entry in the Unicode charac\xe2\x80\x90'
p2566
tp2567
a(Vhttp://docs.python.org/library/functions.html
p2568
S'717'
p2569
tp2570
a(Vhttp://en.wikipedia.org/wiki/Considered_harmful
p2571
S'717'
p2572
tp2573
a(Vhttp://meyerweb.com/eric/comment/chech.html
p2574
S'717'
p2575
tp2576
a(Vhttp://meyerweb.com/eric/comment/chech.html
p2577
S'717'
p2578
tp2579
a(Vhttp://docs.python.org/library/functions.html
p2580
S'719'
p2581
tp2582
a(Vhttps://pypi.python.org
p2583
S'ages,  PEP-8  recommends  concatenating'
p2584
tp2585
a(Vhttp://speed.pypy.org
p2586
S'ages,  PEP-8  recommends  concatenating'
p2587
tp2588
a(Vhttp://bit.ly/1GsZwss
p2589
S'723'
p2590
tp2591
a(Vhttp://bit.ly/1QS9Ong
p2592
S'723'
p2593
tp2594
a(Vhttp://bit.ly/1QS9Ong
p2595
S'723'
p2596
tp2597
a(Vhttp://bit.ly/1DeDbKf
p2598
S'|  Python Jargon'
p2599
tp2600
a(Vhttp://python.pro.br
p2601
S'Myriad Condensed; and the code font is Dalton Maag\xe2\x80\x99s Ubuntu Mono.'
p2602
tp2603
a(Vhttp://animals.oreilly.com
p2604
S'Myriad Condensed; and the code font is Dalton Maag\xe2\x80\x99s Ubuntu Mono.'
p2605
tp2606
a.